; ModuleID = '38/115.c'
source_filename = "38/115.c"
target datalayout = "e-m:e-p270:32:32-p271:32:32-p272:64:64-i64:64-f80:128-n8:16:32:64-S128"
target triple = "x86_64-pc-linux-gnu"

@.str = private unnamed_addr constant [3 x i8] c"%d\00", align 1
@.str.1 = private unnamed_addr constant [4 x i8] c"%lf\00", align 1
@.str.2 = private unnamed_addr constant [6 x i8] c"%.5f\0A\00", align 1

; Function Attrs: noinline nounwind uwtable
define dso_local i32 @main() #0 {
  %1 = alloca i32, align 4
  %2 = alloca i32, align 4
  %3 = alloca i32, align 4
  %4 = alloca double*, align 8
  %5 = alloca i32, align 4
  %6 = alloca double, align 8
  %7 = alloca double, align 8
  store i32 0, i32* %1, align 4
  %8 = call i32 (i8*, ...) @__isoc99_scanf(i8* getelementptr inbounds ([3 x i8], [3 x i8]* @.str, i64 0, i64 0), i32* %2)
  br label %9

9:                                                ; preds = %70, %0
  %10 = load i32, i32* %2, align 4
  %11 = add nsw i32 %10, -1
  store i32 %11, i32* %2, align 4
  %12 = icmp ne i32 %10, 0
  br i1 %12, label %13, label %81

13:                                               ; preds = %9
  %14 = call i32 (i8*, ...) @__isoc99_scanf(i8* getelementptr inbounds ([3 x i8], [3 x i8]* @.str, i64 0, i64 0), i32* %3)
  %15 = load i32, i32* %3, align 4
  %16 = sext i32 %15 to i64
  %17 = mul i64 %16, 8
  %18 = call noalias i8* @malloc(i64 %17) #3
  %19 = bitcast i8* %18 to double*
  store double* %19, double** %4, align 8
  store double 0.000000e+00, double* %6, align 8
  store i32 0, i32* %5, align 4
  br label %20

20:                                               ; preds = %37, %13
  %21 = load i32, i32* %5, align 4
  %22 = load i32, i32* %3, align 4
  %23 = icmp slt i32 %21, %22
  br i1 %23, label %24, label %40

24:                                               ; preds = %20
  %25 = load double*, double** %4, align 8
  %26 = load i32, i32* %5, align 4
  %27 = sext i32 %26 to i64
  %28 = getelementptr inbounds double, double* %25, i64 %27
  %29 = call i32 (i8*, ...) @__isoc99_scanf(i8* getelementptr inbounds ([4 x i8], [4 x i8]* @.str.1, i64 0, i64 0), double* %28)
  %30 = load double*, double** %4, align 8
  %31 = load i32, i32* %5, align 4
  %32 = sext i32 %31 to i64
  %33 = getelementptr inbounds double, double* %30, i64 %32
  %34 = load double, double* %33, align 8
  %35 = load double, double* %6, align 8
  %36 = fadd double %35, %34
  store double %36, double* %6, align 8
  br label %37

37:                                               ; preds = %24
  %38 = load i32, i32* %5, align 4
  %39 = add nsw i32 %38, 1
  store i32 %39, i32* %5, align 4
  br label %20

40:                                               ; preds = %20
  %41 = load i32, i32* %3, align 4
  %42 = sitofp i32 %41 to double
  %43 = load double, double* %6, align 8
  %44 = fdiv double %43, %42
  store double %44, double* %6, align 8
  store double 0.000000e+00, double* %7, align 8
  store i32 0, i32* %5, align 4
  br label %45

45:                                               ; preds = %67, %40
  %46 = load i32, i32* %5, align 4
  %47 = load i32, i32* %3, align 4
  %48 = icmp slt i32 %46, %47
  br i1 %48, label %49, label %70

49:                                               ; preds = %45
  %50 = load double*, double** %4, align 8
  %51 = load i32, i32* %5, align 4
  %52 = sext i32 %51 to i64
  %53 = getelementptr inbounds double, double* %50, i64 %52
  %54 = load double, double* %53, align 8
  %55 = load double, double* %6, align 8
  %56 = fsub double %54, %55
  %57 = load double*, double** %4, align 8
  %58 = load i32, i32* %5, align 4
  %59 = sext i32 %58 to i64
  %60 = getelementptr inbounds double, double* %57, i64 %59
  %61 = load double, double* %60, align 8
  %62 = load double, double* %6, align 8
  %63 = fsub double %61, %62
  %64 = fmul double %56, %63
  %65 = load double, double* %7, align 8
  %66 = fadd double %65, %64
  store double %66, double* %7, align 8
  br label %67

67:                                               ; preds = %49
  %68 = load i32, i32* %5, align 4
  %69 = add nsw i32 %68, 1
  store i32 %69, i32* %5, align 4
  br label %45

70:                                               ; preds = %45
  %71 = load i32, i32* %3, align 4
  %72 = sitofp i32 %71 to double
  %73 = load double, double* %7, align 8
  %74 = fdiv double %73, %72
  store double %74, double* %7, align 8
  %75 = load double, double* %7, align 8
  %76 = call double @sqrt(double %75) #3
  store double %76, double* %7, align 8
  %77 = load double, double* %7, align 8
  %78 = call i32 (i8*, ...) @printf(i8* getelementptr inbounds ([6 x i8], [6 x i8]* @.str.2, i64 0, i64 0), double %77)
  %79 = load double*, double** %4, align 8
  %80 = bitcast double* %79 to i8*
  call void @free(i8* %80) #3
  br label %9

81:                                               ; preds = %9
  ret i32 0
}

declare dso_local i32 @__isoc99_scanf(i8*, ...) #1

; Function Attrs: nounwind
declare dso_local noalias i8* @malloc(i64) #2

; Function Attrs: nounwind
declare dso_local double @sqrt(double) #2

declare dso_local i32 @printf(i8*, ...) #1

; Function Attrs: nounwind
declare dso_local void @free(i8*) #2


!llvm.module.flags = !{!0}
!llvm.ident = !{!1}

!0 = !{i32 1, !"wchar_size", i32 4}
!1 = !{!"clang version 10.0.0-4ubuntu1 "}
